target datalayout = "e-m:e-p270:32:32-p271:32:32-p272:64:64-i64:64-i128:128-f80:128-n8:16:32:64-S128"
target triple = "x86_64-pc-linux-gnu"

%struct._ir_insn = type { %struct.anon, %union.anon.5 }
%struct.anon = type { %union.anon, %union.anon.4 }
%union.anon = type { i32 }
%union.anon.4 = type { i32 }
%union.anon.5 = type { %union._ir_val }
%union._ir_val = type { double }
%struct._ir_ctx = type { ptr, i32, i32, i32, i32, i32, i32, i32, i32, i32, i32, %struct._ir_insn, ptr, ptr, ptr, i32, i32, i32, ptr, ptr, ptr, ptr, ptr, i32, i32, i64, i32, i32, i32, i64, i32, i32, i32, i32, ptr, ptr, ptr, ptr, ptr, ptr, %union.anon.13, ptr, i32, i32, i32, i64, i32, i32, i32, ptr, ptr, ptr, ptr, %struct._ir_strtab, [61 x i32], [14 x i32] }
%union.anon.13 = type { ptr }
%struct._ir_strtab = type { ptr, i32, i32, i32, i32, ptr, i32, i32 }
%struct._ir_use_list = type { i32, i32 }

; Function Attrs: nounwind uwtable
define hidden void @ir_use_list_remove_one(ptr noundef %0, i32 noundef %1, i32 noundef %2) #0 {
  %4 = alloca ptr, align 8
  %5 = alloca i32, align 4
  %6 = alloca i32, align 4
  %7 = alloca i32, align 4
  %8 = alloca i32, align 4
  %9 = alloca ptr, align 8
  %10 = alloca ptr, align 8
  store ptr %0, ptr %4, align 8
  store i32 %1, ptr %5, align 4
  store i32 %2, ptr %6, align 4
  %11 = load ptr, ptr %4, align 8
  %12 = getelementptr inbounds %struct._ir_ctx, ptr %11, i32 0, i32 13
  %13 = load ptr, ptr %12, align 8
  %14 = load i32, ptr %5, align 4
  %15 = sext i32 %14 to i64
  %16 = getelementptr inbounds %struct._ir_use_list, ptr %13, i64 %15
  store ptr %16, ptr %10, align 8
  %17 = load ptr, ptr %10, align 8
  %18 = getelementptr inbounds %struct._ir_use_list, ptr %17, i32 0, i32 1
  %19 = load i32, ptr %18, align 4
  store i32 %19, ptr %8, align 4
  store i32 0, ptr %7, align 4
  %20 = load ptr, ptr %4, align 8
  %21 = getelementptr inbounds %struct._ir_ctx, ptr %20, i32 0, i32 14
  %22 = load ptr, ptr %21, align 8
  %23 = load ptr, ptr %10, align 8
  %24 = getelementptr inbounds %struct._ir_use_list, ptr %23, i32 0, i32 0
  %25 = load i32, ptr %24, align 4
  %26 = sext i32 %25 to i64
  %27 = getelementptr inbounds i32, ptr %22, i64 %26
  store ptr %27, ptr %9, align 8
  br label %28

28:                                               ; preds = %59, %3
  %29 = load i32, ptr %7, align 4
  %30 = load i32, ptr %8, align 4
  %31 = icmp slt i32 %29, %30
  br i1 %31, label %32, label %62

32:                                               ; preds = %28
  %33 = load ptr, ptr %9, align 8
  %34 = load i32, ptr %33, align 4
  %35 = load i32, ptr %6, align 4
  %36 = icmp eq i32 %34, %35
  br i1 %36, label %37, label %59

37:                                               ; preds = %32
  %38 = load ptr, ptr %10, align 8
  %39 = getelementptr inbounds %struct._ir_use_list, ptr %38, i32 0, i32 1
  %40 = load i32, ptr %39, align 4
  %41 = add nsw i32 %40, -1
  store i32 %41, ptr %39, align 4
  %42 = load i32, ptr %7, align 4
  %43 = add nsw i32 %42, 1
  store i32 %43, ptr %7, align 4
  br label %44

44:                                               ; preds = %48, %37
  %45 = load i32, ptr %7, align 4
  %46 = load i32, ptr %8, align 4
  %47 = icmp slt i32 %45, %46
  br i1 %47, label %48, label %57

48:                                               ; preds = %44
  %49 = load ptr, ptr %9, align 8
  %50 = getelementptr inbounds i32, ptr %49, i64 1
  %51 = load i32, ptr %50, align 4
  %52 = load ptr, ptr %9, align 8
  store i32 %51, ptr %52, align 4
  %53 = load ptr, ptr %9, align 8
  %54 = getelementptr inbounds i32, ptr %53, i32 1
  store ptr %54, ptr %9, align 8
  %55 = load i32, ptr %7, align 4
  %56 = add nsw i32 %55, 1
  store i32 %56, ptr %7, align 4
  br label %44

57:                                               ; preds = %44
  %58 = load ptr, ptr %9, align 8
  store i32 0, ptr %58, align 4
  br label %62

59:                                               ; preds = %32
  %60 = load i32, ptr %7, align 4
  %61 = add nsw i32 %60, 1
  store i32 %61, ptr %7, align 4
  br label %28

62:                                               ; preds = %57, %28
  ret void
}