; Function Attrs: nofree norecurse nosync nounwind memory(readwrite, inaccessiblemem: none) uwtable
define hidden void @ir_use_list_remove_one(ptr nocapture noundef readonly %0, i32 noundef %1, i32 noundef %2) local_unnamed_addr #14 {
  %4 = getelementptr inbounds i8, ptr %0, i64 72
  %5 = load ptr, ptr %4, align 8
  %6 = sext i32 %1 to i64
  %7 = getelementptr inbounds %struct._ir_use_list, ptr %5, i64 %6
  %8 = getelementptr inbounds i8, ptr %7, i64 4
  %9 = load i32, ptr %8, align 4
  %10 = getelementptr inbounds i8, ptr %0, i64 80
  %11 = load ptr, ptr %10, align 8
  %12 = load i32, ptr %7, align 4
  %13 = sext i32 %12 to i64
  %14 = getelementptr i32, ptr %11, i64 %13
  %15 = icmp sgt i32 %9, 0
  br i1 %15, label %.lr.ph, label %.loopexit

.lr.ph:                                           ; preds = %3
  %16 = load i32, ptr %14, align 4
  %17 = icmp eq i32 %16, %2
  br i1 %17, label %.split.us, label %.loopexit

.split.us:                                        ; preds = %.lr.ph
  %18 = add nsw i32 %9, -1
  store i32 %18, ptr %8, align 4
  %.not = icmp eq i32 %9, 1
  br i1 %.not, label %._crit_edge, label %.lr.ph25

.lr.ph25:                                         ; preds = %.split.us, %.lr.ph25
  %.124 = phi i32 [ %.1, %.lr.ph25 ], [ 1, %.split.us ]
  %.01823 = phi ptr [ %19, %.lr.ph25 ], [ %14, %.split.us ]
  %19 = getelementptr inbounds i8, ptr %.01823, i64 4
  %20 = load i32, ptr %19, align 4
  store i32 %20, ptr %.01823, align 4
  %.1 = add nuw nsw i32 %.124, 1
  %exitcond.not = icmp eq i32 %.1, %9
  br i1 %exitcond.not, label %._crit_edge, label %.lr.ph25

._crit_edge:                                      ; preds = %.lr.ph25, %.split.us
  %.018.lcssa = phi ptr [ %14, %.split.us ], [ %19, %.lr.ph25 ]
  store i32 0, ptr %.018.lcssa, align 4
  br label %.loopexit

.loopexit:                                        ; preds = %.lr.ph, %3, %._crit_edge
  ret void
}